Certificate Revocation List (CRL):
        Version 2 (0x1)
    Signature Algorithm: sha1WithRSAEncryption
        Issuer: /O=Superfish, Inc./L=SF/ST=CA/C=US/CN=Superfish, Inc.
        Last Update: Feb 19 21:53:52 2015 GMT
        Next Update: Jul  6 21:53:52 2042 GMT
Revoked Certificates:
    Serial Number: D2FC1387A944DCE7
        Revocation Date: Feb 19 21:53:25 2015 GMT
        CRL entry extensions:
            X509v3 CRL Reason Code: 
                Cessation Of Operation
    Signature Algorithm: sha1WithRSAEncryption
         0d:d5:a2:73:01:bc:02:3d:7c:56:ec:b4:2d:35:8d:ac:01:d9:
         86:e4:41:2b:48:29:08:d8:6b:06:6f:5f:e9:87:bb:08:f8:e0:
         39:1b:06:28:a9:b2:0c:6e:9e:d4:80:a7:56:44:6a:01:22:4e:
         94:97:6a:f0:3f:29:aa:12:73:29:46:0f:2b:7c:31:c5:19:92:
         cb:87:7a:fe:e3:eb:81:a7:e6:8a:73:73:94:30:69:93:41:5b:
         de:d6:66:88:5d:11:9c:be:ea:4d:38:0b:9f:23:6a:98:68:49:
         e9:20:79:1f:08:ae:ff:d6:f3:a1:b2:19:5c:9b:c2:32:11:ad:
         62:f3
-----BEGIN X509 CRL-----
MIIBTzCBuQIBATANBgkqhkiG9w0BAQUFADBbMRgwFgYDVQQKEw9TdXBlcmZpc2gs
IEluYy4xCzAJBgNVBAcTAlNGMQswCQYDVQQIEwJDQTELMAkGA1UEBhMCVVMxGDAW
BgNVBAMTD1N1cGVyZmlzaCwgSW5jLhcNMTUwMjE5MjE1MzUyWhcNNDIwNzA2MjE1
MzUyWjAqMCgCCQDS/BOHqUTc5xcNMTUwMjE5MjE1MzI1WjAMMAoGA1UdFQQDCgEF
MA0GCSqGSIb3DQEBBQUAA4GBAA3VonMBvAI9fFbstC01jawB2YbkQStIKQjYawZv
X+mHuwj44DkbBiipsgxuntSAp1ZEagEiTpSXavA/KaoScylGDyt8McUZksuHev7j
64Gn5opzc5QwaZNBW97WZohdEZy+6k04C58japhoSekgeR8Irv/W86GyGVybwjIR
rWLz
-----END X509 CRL-----
