-----BEGIN CERTIFICATE-----
MIIDNDCCAhwCCQD62Xras/n4YzANBgkqhkiG9w0BAQUFADBcMQswCQYDVQQGEwJV
UzEVMBMGA1UEBwwMRGVmYXVsdCBDaXR5MRgwFgYDVQQKDA9zaW1pbGFycHJvZHVj
dHMxHDAaBgNVBAMME3NpbWlsYXJwcm9kdWN0cy5uZXQwHhcNMTQwNDIyMTIxODA4
WhcNMTYwNDIxMTIxODA4WjBcMQswCQYDVQQGEwJVUzEVMBMGA1UEBwwMRGVmYXVs
dCBDaXR5MRgwFgYDVQQKDA9zaW1pbGFycHJvZHVjdHMxHDAaBgNVBAMME3NpbWls
YXJwcm9kdWN0cy5uZXQwggEiMA0GCSqGSIb3DQEBAQUAA4IBDwAwggEKAoIBAQDP
IB9gU61wBIc3sT+rMKGmjMYUYsILDmPLTe1nE3+9rctKC0hdsxVyL99TDFw6ys9k
3PAMvzi5wgc5JZfb6TxEd5IHTxs4s8NhnhboByYubcLW5qNAVFec9/PbwC5Kzi9n
B44OJAgPHJePInLqXSVePB7dmc8CrmJX6IF9HlJEST3AWdmtP1D4E03IOjXSZAEK
dlptk1JCboj2WbtDtQh37mjQy+wUZ62IKh+ZJhNE46InW6PWCItlMJwTqG+3M4yV
ePMzzmCU/byfcIIjkO8F6NCTTtEZRRXeJu81UizHeoGPI9sLf69SSbqWhiKe76uB
hyLxYPkJ9KdGPOErCbANAgMBAAEwDQYJKoZIhvcNAQEFBQADggEBALWhT46wFuCc
PrUXlh3OgfVvWTtf73kqOagvOjWIA0wifxyxR2ZyBJnfhJA8bGn3l/3Gs4UXEJN0
wJkKNjA04rmmun9GKmuMgcgit+jN3iu31QN/gG2oMXuCLe8JZrFfuVL0KKoeqBEk
TNWSlGtDTBkLkGIy7BluERFg2MOAsZl4rK1km+OY2JCkrLGPcPFER5lJov6ZSvDA
E1658ea5lCy8Fs9hoGqSvrNWUvjDT1bSuF+/zpqJUWSqDkmE6wLgdc4Mtcfc2RYJ
ciP/SmYz93JohnR9UQEmdv91q0h+ALhFZesz6OxqtgwAIsYbj75dP2FAij+s1ayW
kvvybzBKTYc=
-----END CERTIFICATE-----


Certificate:
    Data:
        Version: 1 (0x0)
        Serial Number: 18075613659169159267 (0xfad97adab3f9f863)
    Signature Algorithm: sha1WithRSAEncryption
        Issuer: C=US, L=Default City, O=similarproducts, CN=similarproducts.net
        Validity
            Not Before: Apr 22 12:18:08 2014 GMT
            Not After : Apr 21 12:18:08 2016 GMT
        Subject: C=US, L=Default City, O=similarproducts, CN=similarproducts.net
        Subject Public Key Info:
            Public Key Algorithm: rsaEncryption
                Public-Key: (2048 bit)
                Modulus:
                    00:cf:20:1f:60:53:ad:70:04:87:37:b1:3f:ab:30:
                    a1:a6:8c:c6:14:62:c2:0b:0e:63:cb:4d:ed:67:13:
                    7f:bd:ad:cb:4a:0b:48:5d:b3:15:72:2f:df:53:0c:
                    5c:3a:ca:cf:64:dc:f0:0c:bf:38:b9:c2:07:39:25:
                    97:db:e9:3c:44:77:92:07:4f:1b:38:b3:c3:61:9e:
                    16:e8:07:26:2e:6d:c2:d6:e6:a3:40:54:57:9c:f7:
                    f3:db:c0:2e:4a:ce:2f:67:07:8e:0e:24:08:0f:1c:
                    97:8f:22:72:ea:5d:25:5e:3c:1e:dd:99:cf:02:ae:
                    62:57:e8:81:7d:1e:52:44:49:3d:c0:59:d9:ad:3f:
                    50:f8:13:4d:c8:3a:35:d2:64:01:0a:76:5a:6d:93:
                    52:42:6e:88:f6:59:bb:43:b5:08:77:ee:68:d0:cb:
                    ec:14:67:ad:88:2a:1f:99:26:13:44:e3:a2:27:5b:
                    a3:d6:08:8b:65:30:9c:13:a8:6f:b7:33:8c:95:78:
                    f3:33:ce:60:94:fd:bc:9f:70:82:23:90:ef:05:e8:
                    d0:93:4e:d1:19:45:15:de:26:ef:35:52:2c:c7:7a:
                    81:8f:23:db:0b:7f:af:52:49:ba:96:86:22:9e:ef:
                    ab:81:87:22:f1:60:f9:09:f4:a7:46:3c:e1:2b:09:
                    b0:0d
                Exponent: 65537 (0x10001)
    Signature Algorithm: sha1WithRSAEncryption
         b5:a1:4f:8e:b0:16:e0:9c:3e:b5:17:96:1d:ce:81:f5:6f:59:
         3b:5f:ef:79:2a:39:a8:2f:3a:35:88:03:4c:22:7f:1c:b1:47:
         66:72:04:99:df:84:90:3c:6c:69:f7:97:fd:c6:b3:85:17:10:
         93:74:c0:99:0a:36:30:34:e2:b9:a6:ba:7f:46:2a:6b:8c:81:
         c8:22:b7:e8:cd:de:2b:b7:d5:03:7f:80:6d:a8:31:7b:82:2d:
         ef:09:66:b1:5f:b9:52:f4:28:aa:1e:a8:11:24:4c:d5:92:94:
         6b:43:4c:19:0b:90:62:32:ec:19:6e:11:11:60:d8:c3:80:b1:
         99:78:ac:ad:64:9b:e3:98:d8:90:a4:ac:b1:8f:70:f1:44:47:
         99:49:a2:fe:99:4a:f0:c0:13:5e:b9:f1:e6:b9:94:2c:bc:16:
         cf:61:a0:6a:92:be:b3:56:52:f8:c3:4f:56:d2:b8:5f:bf:ce:
         9a:89:51:64:aa:0e:49:84:eb:02:e0:75:ce:0c:b5:c7:dc:d9:
         16:09:72:23:ff:4a:66:33:f7:72:68:86:74:7d:51:01:26:76:
         ff:75:ab:48:7e:00:b8:45:65:eb:33:e8:ec:6a:b6:0c:00:22:
         c6:1b:8f:be:5d:3f:61:40:8a:3f:ac:d5:ac:96:92:fb:f2:6f:
         30:4a:4d:87
-----BEGIN CERTIFICATE-----
MIIDNDCCAhwCCQD62Xras/n4YzANBgkqhkiG9w0BAQUFADBcMQswCQYDVQQGEwJV
UzEVMBMGA1UEBwwMRGVmYXVsdCBDaXR5MRgwFgYDVQQKDA9zaW1pbGFycHJvZHVj
dHMxHDAaBgNVBAMME3NpbWlsYXJwcm9kdWN0cy5uZXQwHhcNMTQwNDIyMTIxODA4
WhcNMTYwNDIxMTIxODA4WjBcMQswCQYDVQQGEwJVUzEVMBMGA1UEBwwMRGVmYXVs
dCBDaXR5MRgwFgYDVQQKDA9zaW1pbGFycHJvZHVjdHMxHDAaBgNVBAMME3NpbWls
YXJwcm9kdWN0cy5uZXQwggEiMA0GCSqGSIb3DQEBAQUAA4IBDwAwggEKAoIBAQDP
IB9gU61wBIc3sT+rMKGmjMYUYsILDmPLTe1nE3+9rctKC0hdsxVyL99TDFw6ys9k
3PAMvzi5wgc5JZfb6TxEd5IHTxs4s8NhnhboByYubcLW5qNAVFec9/PbwC5Kzi9n
B44OJAgPHJePInLqXSVePB7dmc8CrmJX6IF9HlJEST3AWdmtP1D4E03IOjXSZAEK
dlptk1JCboj2WbtDtQh37mjQy+wUZ62IKh+ZJhNE46InW6PWCItlMJwTqG+3M4yV
ePMzzmCU/byfcIIjkO8F6NCTTtEZRRXeJu81UizHeoGPI9sLf69SSbqWhiKe76uB
hyLxYPkJ9KdGPOErCbANAgMBAAEwDQYJKoZIhvcNAQEFBQADggEBALWhT46wFuCc
PrUXlh3OgfVvWTtf73kqOagvOjWIA0wifxyxR2ZyBJnfhJA8bGn3l/3Gs4UXEJN0
wJkKNjA04rmmun9GKmuMgcgit+jN3iu31QN/gG2oMXuCLe8JZrFfuVL0KKoeqBEk
TNWSlGtDTBkLkGIy7BluERFg2MOAsZl4rK1km+OY2JCkrLGPcPFER5lJov6ZSvDA
E1658ea5lCy8Fs9hoGqSvrNWUvjDT1bSuF+/zpqJUWSqDkmE6wLgdc4Mtcfc2RYJ
ciP/SmYz93JohnR9UQEmdv91q0h+ALhFZesz6OxqtgwAIsYbj75dP2FAij+s1ayW
kvvybzBKTYc=
-----END CERTIFICATE-----
